; Function Attrs: mustprogress uwtable
define void @_ZNK2cv5gimpl7GIsland4nameB5cxx11Ev(ptr dead_on_unwind noalias writable sret(%"class.std::__cxx11::basic_string") align 8 %0, ptr noundef nonnull align 8 dereferenceable(248) %1) local_unnamed_addr #3 align 2 personality ptr @__gxx_personality_v0 {
  %3 = alloca %"class.std::__cxx11::basic_stringstream", align 8
  %4 = getelementptr inbounds i8, ptr %1, i64 208
  %5 = load i64, ptr %4, align 8
  %6 = icmp eq i64 %5, 1
  br i1 %6, label %_ZNK2cv4util8optionalINSt7__cxx1112basic_stringIcSt11char_traitsIcESaIcEEEE5valueEv.exit, label %8

_ZNK2cv4util8optionalINSt7__cxx1112basic_stringIcSt11char_traitsIcESaIcEEEE5valueEv.exit: ; preds = %2
  %7 = getelementptr inbounds i8, ptr %1, i64 216
  tail call void @_ZNSt7__cxx1112basic_stringIcSt11char_traitsIcESaIcEEC1ERKS4_(ptr noundef nonnull align 8 dereferenceable(32) %0, ptr noundef nonnull align 8 dereferenceable(32) %7)
  br label %19

8:                                                ; preds = %2
  call void @_ZNSt7__cxx1118basic_stringstreamIcSt11char_traitsIcESaIcEEC1Ev(ptr noundef nonnull align 8 dereferenceable(128) %3)
  %9 = getelementptr inbounds i8, ptr %3, i64 16
  %10 = invoke noundef nonnull align 8 dereferenceable(8) ptr @_ZStlsISt11char_traitsIcEERSt13basic_ostreamIcT_ES5_PKc(ptr noundef nonnull align 8 dereferenceable(8) %9, ptr noundef nonnull @.str.7)
          to label %11 unwind label %17

11:                                               ; preds = %8
  %12 = invoke noundef nonnull align 8 dereferenceable(8) ptr @_ZNSolsEPFRSt8ios_baseS0_E(ptr noundef nonnull align 8 dereferenceable(8) %10, ptr noundef nonnull @_ZSt3hexRSt8ios_base)
          to label %13 unwind label %17

13:                                               ; preds = %11
  %14 = invoke noundef nonnull align 8 dereferenceable(8) ptr @_ZNSolsEPKv(ptr noundef nonnull align 8 dereferenceable(8) %12, ptr noundef nonnull %1)
          to label %15 unwind label %17

15:                                               ; preds = %13
  invoke void @_ZNKSt7__cxx1118basic_stringstreamIcSt11char_traitsIcESaIcEE3strEv(ptr dead_on_unwind writable sret(%"class.std::__cxx11::basic_string") align 8 %0, ptr noundef nonnull align 8 dereferenceable(128) %3)
          to label %16 unwind label %17

16:                                               ; preds = %15
  call void @_ZNSt7__cxx1118basic_stringstreamIcSt11char_traitsIcESaIcEED1Ev(ptr noundef nonnull align 8 dereferenceable(128) %3) #24
  br label %19

17:                                               ; preds = %15, %13, %11, %8
  %18 = landingpad { ptr, i32 }
          cleanup
  call void @_ZNSt7__cxx1118basic_stringstreamIcSt11char_traitsIcESaIcEED1Ev(ptr noundef nonnull align 8 dereferenceable(128) %3) #24
  resume { ptr, i32 } %18

19:                                               ; preds = %16, %_ZNK2cv4util8optionalINSt7__cxx1112basic_stringIcSt11char_traitsIcESaIcEEEE5valueEv.exit
  ret void
}